; Function Attrs: mustprogress uwtable
define void @_ZN32pxrInternal_v0_24__pxrReserved__22Vt_DefaultValueFactoryINS_7GfVec3fEE6InvokeEv(ptr dead_on_unwind noalias nocapture writable writeonly sret(%"struct.pxrInternal_v0_24__pxrReserved__::Vt_DefaultValueHolder") align 8 %0) local_unnamed_addr #8 align 2 personality ptr @__gxx_personality_v0 {
  %2 = tail call { <2 x float>, float } @_ZN32pxrInternal_v0_24__pxrReserved__6VtZeroINS_7GfVec3fEEET_v()
  %.fca.0.extract = extractvalue { <2 x float>, float } %2, 0
  %.fca.1.extract = extractvalue { <2 x float>, float } %2, 1
  tail call void @llvm.experimental.noalias.scope.decl(metadata !111)
  %3 = tail call noalias noundef nonnull dereferenceable(12) ptr @_Znwm(i64 noundef 12) #23, !noalias !114
  store <2 x float> %.fca.0.extract, ptr %3, align 8, !noalias !114
  %.sroa.2.0..sroa_idx1 = getelementptr inbounds i8, ptr %3, i64 8
  store float %.fca.1.extract, ptr %.sroa.2.0..sroa_idx1, align 8, !noalias !114
  store ptr %3, ptr %0, align 8, !alias.scope !111
  %4 = getelementptr inbounds nuw i8, ptr %0, i64 8
  store ptr @_ZN32pxrInternal_v0_24__pxrReserved__14TfAnyUniquePtr7_DeleteINS_7GfVec3fEEEvPKv, ptr %4, align 8, !alias.scope !111
  %5 = getelementptr inbounds nuw i8, ptr %0, i64 16
  store ptr @_ZTIN32pxrInternal_v0_24__pxrReserved__7GfVec3fE, ptr %5, align 8, !alias.scope !111
  ret void
}